target datalayout = "e-m:e-p270:32:32-p271:32:32-p272:64:64-i64:64-i128:128-f80:128-n8:16:32:64-S128"
target triple = "x86_64-pc-linux-gnu"

%struct.Ivy_Obj_t_ = type { i32, i32, i32, i32, ptr, ptr, ptr, ptr, ptr, ptr, ptr, ptr }
%struct.Ivy_FraigMan_t_ = type { ptr, i64, i64, ptr, ptr, i32, ptr, ptr, i32, ptr, ptr, %struct.Ivy_FraigList_t_, %struct.Ivy_FraigList_t_, i32, ptr, i32, ptr, ptr, i32, i32, i32, i32, i32, i32, i32, i32, i32, i32, i32, i32, i32, i64, i64, i64, i64, i64, i64, i64, i64, i64, i64 }
%struct.Ivy_FraigList_t_ = type { ptr, ptr, i32 }

; Function Attrs: inlinehint nounwind uwtable
define internal i32 @toLitCond(i32 noundef %0, i32 noundef %1) #4 {
  %3 = alloca i32, align 4
  %4 = alloca i32, align 4
  store i32 %0, ptr %3, align 4, !tbaa !44
  store i32 %1, ptr %4, align 4, !tbaa !44
  %5 = load i32, ptr %3, align 4, !tbaa !44
  %6 = load i32, ptr %3, align 4, !tbaa !44
  %7 = add nsw i32 %5, %6
  %8 = load i32, ptr %4, align 4, !tbaa !44
  %9 = icmp ne i32 %8, 0
  %10 = zext i1 %9 to i32
  %11 = add nsw i32 %7, %10
  ret i32 %11
}

; Function Attrs: inlinehint nounwind uwtable
define internal i32 @Ivy_IsComplement(ptr noundef %0) #4 {
  %2 = alloca ptr, align 8
  store ptr %0, ptr %2, align 8, !tbaa !72
  %3 = load ptr, ptr %2, align 8, !tbaa !72
  %4 = ptrtoint ptr %3 to i64
  %5 = and i64 %4, 1
  %6 = trunc i64 %5 to i32
  ret i32 %6
}

; Function Attrs: inlinehint nounwind uwtable
define internal ptr @Ivy_Regular(ptr noundef %0) #4 {
  %2 = alloca ptr, align 8
  store ptr %0, ptr %2, align 8, !tbaa !72
  %3 = load ptr, ptr %2, align 8, !tbaa !72
  %4 = ptrtoint ptr %3 to i64
  %5 = and i64 %4, -2
  %6 = inttoptr i64 %5 to ptr
  ret ptr %6
}

; Function Attrs: inlinehint nounwind uwtable
define internal i32 @Ivy_ObjSatNum(ptr noundef %0) #4 {
  %2 = alloca ptr, align 8
  store ptr %0, ptr %2, align 8, !tbaa !72
  %3 = load ptr, ptr %2, align 8, !tbaa !72
  %4 = getelementptr inbounds nuw %struct.Ivy_Obj_t_, ptr %3, i32 0, i32 7
  %5 = load ptr, ptr %4, align 8, !tbaa !79
  %6 = ptrtoint ptr %5 to i64
  %7 = trunc i64 %6 to i32
  ret i32 %7
}

; Function Attrs: nounwind uwtable
define void @Ivy_FraigAddClausesMux(ptr noundef %0, ptr noundef %1) #0 {
  %3 = alloca ptr, align 8
  %4 = alloca ptr, align 8
  %5 = alloca ptr, align 8
  %6 = alloca ptr, align 8
  %7 = alloca ptr, align 8
  %8 = alloca [4 x i32], align 16
  %9 = alloca i32, align 4
  %10 = alloca i32, align 4
  %11 = alloca i32, align 4
  %12 = alloca i32, align 4
  %13 = alloca i32, align 4
  %14 = alloca i32, align 4
  %15 = alloca i32, align 4
  %16 = alloca i32, align 4
  store ptr %0, ptr %3, align 8, !tbaa !60
  store ptr %1, ptr %4, align 8, !tbaa !72
  call void @llvm.lifetime.start.p0(i64 8, ptr %5) #12
  call void @llvm.lifetime.start.p0(i64 8, ptr %6) #12
  call void @llvm.lifetime.start.p0(i64 8, ptr %7) #12
  call void @llvm.lifetime.start.p0(i64 16, ptr %8) #12
  call void @llvm.lifetime.start.p0(i64 4, ptr %9) #12
  call void @llvm.lifetime.start.p0(i64 4, ptr %10) #12
  call void @llvm.lifetime.start.p0(i64 4, ptr %11) #12
  call void @llvm.lifetime.start.p0(i64 4, ptr %12) #12
  call void @llvm.lifetime.start.p0(i64 4, ptr %13) #12
  call void @llvm.lifetime.start.p0(i64 4, ptr %14) #12
  call void @llvm.lifetime.start.p0(i64 4, ptr %15) #12
  %17 = load ptr, ptr %4, align 8, !tbaa !72
  %18 = call ptr @Ivy_ObjRecognizeMux(ptr noundef %17, ptr noundef %6, ptr noundef %7)
  store ptr %18, ptr %5, align 8, !tbaa !72
  %19 = load ptr, ptr %4, align 8, !tbaa !72
  %20 = call i32 @Ivy_ObjSatNum(ptr noundef %19)
  store i32 %20, ptr %10, align 4, !tbaa !44
  %21 = load ptr, ptr %5, align 8, !tbaa !72
  %22 = call i32 @Ivy_ObjSatNum(ptr noundef %21)
  store i32 %22, ptr %11, align 4, !tbaa !44
  %23 = load ptr, ptr %6, align 8, !tbaa !72
  %24 = call ptr @Ivy_Regular(ptr noundef %23)
  %25 = call i32 @Ivy_ObjSatNum(ptr noundef %24)
  store i32 %25, ptr %12, align 4, !tbaa !44
  %26 = load ptr, ptr %7, align 8, !tbaa !72
  %27 = call ptr @Ivy_Regular(ptr noundef %26)
  %28 = call i32 @Ivy_ObjSatNum(ptr noundef %27)
  store i32 %28, ptr %13, align 4, !tbaa !44
  %29 = load ptr, ptr %6, align 8, !tbaa !72
  %30 = call i32 @Ivy_IsComplement(ptr noundef %29)
  store i32 %30, ptr %14, align 4, !tbaa !44
  %31 = load ptr, ptr %7, align 8, !tbaa !72
  %32 = call i32 @Ivy_IsComplement(ptr noundef %31)
  store i32 %32, ptr %15, align 4, !tbaa !44
  %33 = load i32, ptr %11, align 4, !tbaa !44
  %34 = call i32 @toLitCond(i32 noundef %33, i32 noundef 1)
  %35 = getelementptr inbounds [4 x i32], ptr %8, i64 0, i64 0
  store i32 %34, ptr %35, align 16, !tbaa !44
  %36 = load i32, ptr %12, align 4, !tbaa !44
  %37 = load i32, ptr %14, align 4, !tbaa !44
  %38 = xor i32 1, %37
  %39 = call i32 @toLitCond(i32 noundef %36, i32 noundef %38)
  %40 = getelementptr inbounds [4 x i32], ptr %8, i64 0, i64 1
  store i32 %39, ptr %40, align 4, !tbaa !44
  %41 = load i32, ptr %10, align 4, !tbaa !44
  %42 = call i32 @toLitCond(i32 noundef %41, i32 noundef 0)
  %43 = getelementptr inbounds [4 x i32], ptr %8, i64 0, i64 2
  store i32 %42, ptr %43, align 8, !tbaa !44
  %44 = load ptr, ptr %3, align 8, !tbaa !60
  %45 = getelementptr inbounds nuw %struct.Ivy_FraigMan_t_, ptr %44, i32 0, i32 14
  %46 = load ptr, ptr %45, align 8, !tbaa !87
  %47 = getelementptr inbounds [4 x i32], ptr %8, i64 0, i64 0
  %48 = getelementptr inbounds [4 x i32], ptr %8, i64 0, i64 0
  %49 = getelementptr inbounds i32, ptr %48, i64 3
  %50 = call i32 @sat_solver_addclause(ptr noundef %46, ptr noundef %47, ptr noundef %49)
  store i32 %50, ptr %9, align 4, !tbaa !44
  %51 = load i32, ptr %11, align 4, !tbaa !44
  %52 = call i32 @toLitCond(i32 noundef %51, i32 noundef 1)
  %53 = getelementptr inbounds [4 x i32], ptr %8, i64 0, i64 0
  store i32 %52, ptr %53, align 16, !tbaa !44
  %54 = load i32, ptr %12, align 4, !tbaa !44
  %55 = load i32, ptr %14, align 4, !tbaa !44
  %56 = xor i32 0, %55
  %57 = call i32 @toLitCond(i32 noundef %54, i32 noundef %56)
  %58 = getelementptr inbounds [4 x i32], ptr %8, i64 0, i64 1
  store i32 %57, ptr %58, align 4, !tbaa !44
  %59 = load i32, ptr %10, align 4, !tbaa !44
  %60 = call i32 @toLitCond(i32 noundef %59, i32 noundef 1)
  %61 = getelementptr inbounds [4 x i32], ptr %8, i64 0, i64 2
  store i32 %60, ptr %61, align 8, !tbaa !44
  %62 = load ptr, ptr %3, align 8, !tbaa !60
  %63 = getelementptr inbounds nuw %struct.Ivy_FraigMan_t_, ptr %62, i32 0, i32 14
  %64 = load ptr, ptr %63, align 8, !tbaa !87
  %65 = getelementptr inbounds [4 x i32], ptr %8, i64 0, i64 0
  %66 = getelementptr inbounds [4 x i32], ptr %8, i64 0, i64 0
  %67 = getelementptr inbounds i32, ptr %66, i64 3
  %68 = call i32 @sat_solver_addclause(ptr noundef %64, ptr noundef %65, ptr noundef %67)
  store i32 %68, ptr %9, align 4, !tbaa !44
  %69 = load i32, ptr %11, align 4, !tbaa !44
  %70 = call i32 @toLitCond(i32 noundef %69, i32 noundef 0)
  %71 = getelementptr inbounds [4 x i32], ptr %8, i64 0, i64 0
  store i32 %70, ptr %71, align 16, !tbaa !44
  %72 = load i32, ptr %13, align 4, !tbaa !44
  %73 = load i32, ptr %15, align 4, !tbaa !44
  %74 = xor i32 1, %73
  %75 = call i32 @toLitCond(i32 noundef %72, i32 noundef %74)
  %76 = getelementptr inbounds [4 x i32], ptr %8, i64 0, i64 1
  store i32 %75, ptr %76, align 4, !tbaa !44
  %77 = load i32, ptr %10, align 4, !tbaa !44
  %78 = call i32 @toLitCond(i32 noundef %77, i32 noundef 0)
  %79 = getelementptr inbounds [4 x i32], ptr %8, i64 0, i64 2
  store i32 %78, ptr %79, align 8, !tbaa !44
  %80 = load ptr, ptr %3, align 8, !tbaa !60
  %81 = getelementptr inbounds nuw %struct.Ivy_FraigMan_t_, ptr %80, i32 0, i32 14
  %82 = load ptr, ptr %81, align 8, !tbaa !87
  %83 = getelementptr inbounds [4 x i32], ptr %8, i64 0, i64 0
  %84 = getelementptr inbounds [4 x i32], ptr %8, i64 0, i64 0
  %85 = getelementptr inbounds i32, ptr %84, i64 3
  %86 = call i32 @sat_solver_addclause(ptr noundef %82, ptr noundef %83, ptr noundef %85)
  store i32 %86, ptr %9, align 4, !tbaa !44
  %87 = load i32, ptr %11, align 4, !tbaa !44
  %88 = call i32 @toLitCond(i32 noundef %87, i32 noundef 0)
  %89 = getelementptr inbounds [4 x i32], ptr %8, i64 0, i64 0
  store i32 %88, ptr %89, align 16, !tbaa !44
  %90 = load i32, ptr %13, align 4, !tbaa !44
  %91 = load i32, ptr %15, align 4, !tbaa !44
  %92 = xor i32 0, %91
  %93 = call i32 @toLitCond(i32 noundef %90, i32 noundef %92)
  %94 = getelementptr inbounds [4 x i32], ptr %8, i64 0, i64 1
  store i32 %93, ptr %94, align 4, !tbaa !44
  %95 = load i32, ptr %10, align 4, !tbaa !44
  %96 = call i32 @toLitCond(i32 noundef %95, i32 noundef 1)
  %97 = getelementptr inbounds [4 x i32], ptr %8, i64 0, i64 2
  store i32 %96, ptr %97, align 8, !tbaa !44
  %98 = load ptr, ptr %3, align 8, !tbaa !60
  %99 = getelementptr inbounds nuw %struct.Ivy_FraigMan_t_, ptr %98, i32 0, i32 14
  %100 = load ptr, ptr %99, align 8, !tbaa !87
  %101 = getelementptr inbounds [4 x i32], ptr %8, i64 0, i64 0
  %102 = getelementptr inbounds [4 x i32], ptr %8, i64 0, i64 0
  %103 = getelementptr inbounds i32, ptr %102, i64 3
  %104 = call i32 @sat_solver_addclause(ptr noundef %100, ptr noundef %101, ptr noundef %103)
  store i32 %104, ptr %9, align 4, !tbaa !44
  %105 = load i32, ptr %12, align 4, !tbaa !44
  %106 = load i32, ptr %13, align 4, !tbaa !44
  %107 = icmp eq i32 %105, %106
  br i1 %107, label %108, label %109

108:                                              ; preds = %2
  store i32 1, ptr %16, align 4
  br label %150

109:                                              ; preds = %2
  %110 = load i32, ptr %12, align 4, !tbaa !44
  %111 = load i32, ptr %14, align 4, !tbaa !44
  %112 = xor i32 0, %111
  %113 = call i32 @toLitCond(i32 noundef %110, i32 noundef %112)
  %114 = getelementptr inbounds [4 x i32], ptr %8, i64 0, i64 0
  store i32 %113, ptr %114, align 16, !tbaa !44
  %115 = load i32, ptr %13, align 4, !tbaa !44
  %116 = load i32, ptr %15, align 4, !tbaa !44
  %117 = xor i32 0, %116
  %118 = call i32 @toLitCond(i32 noundef %115, i32 noundef %117)
  %119 = getelementptr inbounds [4 x i32], ptr %8, i64 0, i64 1
  store i32 %118, ptr %119, align 4, !tbaa !44
  %120 = load i32, ptr %10, align 4, !tbaa !44
  %121 = call i32 @toLitCond(i32 noundef %120, i32 noundef 1)
  %122 = getelementptr inbounds [4 x i32], ptr %8, i64 0, i64 2
  store i32 %121, ptr %122, align 8, !tbaa !44
  %123 = load ptr, ptr %3, align 8, !tbaa !60
  %124 = getelementptr inbounds nuw %struct.Ivy_FraigMan_t_, ptr %123, i32 0, i32 14
  %125 = load ptr, ptr %124, align 8, !tbaa !87
  %126 = getelementptr inbounds [4 x i32], ptr %8, i64 0, i64 0
  %127 = getelementptr inbounds [4 x i32], ptr %8, i64 0, i64 0
  %128 = getelementptr inbounds i32, ptr %127, i64 3
  %129 = call i32 @sat_solver_addclause(ptr noundef %125, ptr noundef %126, ptr noundef %128)
  store i32 %129, ptr %9, align 4, !tbaa !44
  %130 = load i32, ptr %12, align 4, !tbaa !44
  %131 = load i32, ptr %14, align 4, !tbaa !44
  %132 = xor i32 1, %131
  %133 = call i32 @toLitCond(i32 noundef %130, i32 noundef %132)
  %134 = getelementptr inbounds [4 x i32], ptr %8, i64 0, i64 0
  store i32 %133, ptr %134, align 16, !tbaa !44
  %135 = load i32, ptr %13, align 4, !tbaa !44
  %136 = load i32, ptr %15, align 4, !tbaa !44
  %137 = xor i32 1, %136
  %138 = call i32 @toLitCond(i32 noundef %135, i32 noundef %137)
  %139 = getelementptr inbounds [4 x i32], ptr %8, i64 0, i64 1
  store i32 %138, ptr %139, align 4, !tbaa !44
  %140 = load i32, ptr %10, align 4, !tbaa !44
  %141 = call i32 @toLitCond(i32 noundef %140, i32 noundef 0)
  %142 = getelementptr inbounds [4 x i32], ptr %8, i64 0, i64 2
  store i32 %141, ptr %142, align 8, !tbaa !44
  %143 = load ptr, ptr %3, align 8, !tbaa !60
  %144 = getelementptr inbounds nuw %struct.Ivy_FraigMan_t_, ptr %143, i32 0, i32 14
  %145 = load ptr, ptr %144, align 8, !tbaa !87
  %146 = getelementptr inbounds [4 x i32], ptr %8, i64 0, i64 0
  %147 = getelementptr inbounds [4 x i32], ptr %8, i64 0, i64 0
  %148 = getelementptr inbounds i32, ptr %147, i64 3
  %149 = call i32 @sat_solver_addclause(ptr noundef %145, ptr noundef %146, ptr noundef %148)
  store i32 %149, ptr %9, align 4, !tbaa !44
  store i32 0, ptr %16, align 4
  br label %150

150:                                              ; preds = %109, %108
  call void @llvm.lifetime.end.p0(i64 4, ptr %15) #12
  call void @llvm.lifetime.end.p0(i64 4, ptr %14) #12
  call void @llvm.lifetime.end.p0(i64 4, ptr %13) #12
  call void @llvm.lifetime.end.p0(i64 4, ptr %12) #12
  call void @llvm.lifetime.end.p0(i64 4, ptr %11) #12
  call void @llvm.lifetime.end.p0(i64 4, ptr %10) #12
  call void @llvm.lifetime.end.p0(i64 4, ptr %9) #12
  call void @llvm.lifetime.end.p0(i64 16, ptr %8) #12
  call void @llvm.lifetime.end.p0(i64 8, ptr %7) #12
  call void @llvm.lifetime.end.p0(i64 8, ptr %6) #12
  call void @llvm.lifetime.end.p0(i64 8, ptr %5) #12
  %151 = load i32, ptr %16, align 4
  switch i32 %151, label %153 [
    i32 0, label %152
    i32 1, label %152
  ]

152:                                              ; preds = %150, %150
  ret void

153:                                              ; preds = %150
  unreachable
}