; Function Attrs: nounwind uwtable
define void @Ivy_FraigAddClausesMux(ptr noundef readonly captures(none) %0, ptr noundef %1) local_unnamed_addr #2 {
  %3 = alloca ptr, align 8
  %4 = alloca ptr, align 8
  %5 = alloca [4 x i32], align 16
  call void @llvm.lifetime.start.p0(i64 8, ptr nonnull %3) #26
  call void @llvm.lifetime.start.p0(i64 8, ptr nonnull %4) #26
  call void @llvm.lifetime.start.p0(i64 16, ptr nonnull %5) #26
  %6 = call ptr @Ivy_ObjRecognizeMux(ptr noundef %1, ptr noundef nonnull %3, ptr noundef nonnull %4) #26
  %7 = getelementptr i8, ptr %1, i64 40
  %.val39 = load ptr, ptr %7, align 8, !tbaa !126
  %8 = ptrtoint ptr %.val39 to i64
  %9 = trunc i64 %8 to i32
  %10 = getelementptr i8, ptr %6, i64 40
  %.val38 = load ptr, ptr %10, align 8, !tbaa !126
  %11 = ptrtoint ptr %.val38 to i64
  %12 = trunc i64 %11 to i32
  %13 = load ptr, ptr %3, align 8, !tbaa !145
  %14 = ptrtoint ptr %13 to i64
  %15 = and i64 %14, -2
  %16 = inttoptr i64 %15 to ptr
  %17 = getelementptr i8, ptr %16, i64 40
  %.val37 = load ptr, ptr %17, align 8, !tbaa !126
  %18 = ptrtoint ptr %.val37 to i64
  %19 = trunc i64 %18 to i32
  %20 = load ptr, ptr %4, align 8, !tbaa !145
  %21 = ptrtoint ptr %20 to i64
  %22 = and i64 %21, -2
  %23 = inttoptr i64 %22 to ptr
  %24 = getelementptr i8, ptr %23, i64 40
  %.val = load ptr, ptr %24, align 8, !tbaa !126
  %25 = ptrtoint ptr %.val to i64
  %26 = trunc i64 %25 to i32
  %27 = trunc i64 %14 to i32
  %28 = and i32 %27, 1
  %29 = trunc i64 %21 to i32
  %30 = and i32 %29, 1
  %31 = shl nsw i32 %12, 1
  %32 = or disjoint i32 %31, 1
  store i32 %32, ptr %5, align 16, !tbaa !38
  %33 = shl nsw i32 %19, 1
  %34 = or disjoint i32 %33, %28
  %35 = xor i32 %34, 1
  %36 = getelementptr inbounds nuw i8, ptr %5, i64 4
  store i32 %35, ptr %36, align 4, !tbaa !38
  %37 = shl nsw i32 %9, 1
  %38 = getelementptr inbounds nuw i8, ptr %5, i64 8
  store i32 %37, ptr %38, align 8, !tbaa !38
  %39 = getelementptr inbounds nuw i8, ptr %0, i64 144
  %40 = load ptr, ptr %39, align 8, !tbaa !71
  %41 = getelementptr inbounds nuw i8, ptr %5, i64 12
  %42 = call i32 @sat_solver_addclause(ptr noundef %40, ptr noundef nonnull %5, ptr noundef nonnull %41) #26
  store i32 %32, ptr %5, align 16, !tbaa !38
  store i32 %34, ptr %36, align 4, !tbaa !38
  %43 = or disjoint i32 %37, 1
  store i32 %43, ptr %38, align 8, !tbaa !38
  %44 = load ptr, ptr %39, align 8, !tbaa !71
  %45 = call i32 @sat_solver_addclause(ptr noundef %44, ptr noundef nonnull %5, ptr noundef nonnull %41) #26
  store i32 %31, ptr %5, align 16, !tbaa !38
  %46 = shl nsw i32 %26, 1
  %47 = or disjoint i32 %46, %30
  %48 = xor i32 %47, 1
  store i32 %48, ptr %36, align 4, !tbaa !38
  store i32 %37, ptr %38, align 8, !tbaa !38
  %49 = load ptr, ptr %39, align 8, !tbaa !71
  %50 = call i32 @sat_solver_addclause(ptr noundef %49, ptr noundef nonnull %5, ptr noundef nonnull %41) #26
  store i32 %31, ptr %5, align 16, !tbaa !38
  store i32 %47, ptr %36, align 4, !tbaa !38
  store i32 %43, ptr %38, align 8, !tbaa !38
  %51 = load ptr, ptr %39, align 8, !tbaa !71
  %52 = call i32 @sat_solver_addclause(ptr noundef %51, ptr noundef nonnull %5, ptr noundef nonnull %41) #26
  %53 = icmp eq i32 %19, %26
  br i1 %53, label %59, label %54

54:                                               ; preds = %2
  store i32 %34, ptr %5, align 16, !tbaa !38
  store i32 %47, ptr %36, align 4, !tbaa !38
  store i32 %43, ptr %38, align 8, !tbaa !38
  %55 = load ptr, ptr %39, align 8, !tbaa !71
  %56 = call i32 @sat_solver_addclause(ptr noundef %55, ptr noundef nonnull %5, ptr noundef nonnull %41) #26
  store i32 %35, ptr %5, align 16, !tbaa !38
  store i32 %48, ptr %36, align 4, !tbaa !38
  store i32 %37, ptr %38, align 8, !tbaa !38
  %57 = load ptr, ptr %39, align 8, !tbaa !71
  %58 = call i32 @sat_solver_addclause(ptr noundef %57, ptr noundef nonnull %5, ptr noundef nonnull %41) #26
  br label %59

59:                                               ; preds = %2, %54
  call void @llvm.lifetime.end.p0(i64 16, ptr nonnull %5) #26
  call void @llvm.lifetime.end.p0(i64 8, ptr nonnull %4) #26
  call void @llvm.lifetime.end.p0(i64 8, ptr nonnull %3) #26
  ret void
}